target datalayout = "e-m:e-p270:32:32-p271:32:32-p272:64:64-i64:64-i128:128-f80:128-n8:16:32:64-S128"
target triple = "x86_64-pc-linux-gnu"

; Function Attrs: mustprogress nounwind uwtable
define linkonce_odr noundef float @_ZSt3absf(float noundef %0) #7 comdat {
  %2 = alloca float, align 4
  store float %0, ptr %2, align 4
  %3 = load float, ptr %2, align 4
  %4 = call float @llvm.fabs.f32(float %3)
  ret float %4
}

; Function Attrs: mustprogress uwtable
define hidden noundef float @_ZNK2cv6dynafu7ICPImpl11tukeyWeightEff(ptr noundef nonnull align 8 dereferenceable(40) %0, float noundef %1, float noundef %2) #4 align 2 {
  %4 = alloca float, align 4
  %5 = alloca ptr, align 8
  %6 = alloca float, align 4
  %7 = alloca float, align 4
  %8 = alloca float, align 4
  %9 = alloca float, align 4
  store ptr %0, ptr %5, align 8
  store float %1, ptr %6, align 4
  store float %2, ptr %7, align 4
  %10 = load float, ptr %6, align 4
  %11 = load float, ptr %7, align 4
  %12 = fdiv float %10, %11
  store float %12, ptr %8, align 4
  %13 = load float, ptr %8, align 4
  %14 = call noundef float @_ZSt3absf(float noundef %13)
  %15 = fcmp ole float %14, 0x4012BD8AE0000000
  br i1 %15, label %16, label %25

16:                                               ; preds = %3
  %17 = load float, ptr %8, align 4
  %18 = load float, ptr %8, align 4
  %19 = fmul float %17, %18
  %20 = fdiv float %19, 0x4035F33DE0000000
  %21 = fsub float 1.000000e+00, %20
  store float %21, ptr %9, align 4
  %22 = load float, ptr %9, align 4
  %23 = load float, ptr %9, align 4
  %24 = fmul float %22, %23
  store float %24, ptr %4, align 4
  br label %26

25:                                               ; preds = %3
  store float 0.000000e+00, ptr %4, align 4
  br label %26

26:                                               ; preds = %25, %16
  %27 = load float, ptr %4, align 4
  ret float %27
}