; Function Attrs: mustprogress nofree norecurse nosync nounwind willreturn memory(none) uwtable
define hidden noundef float @_ZNK2cv6dynafu7ICPImpl11tukeyWeightEff(ptr nocapture noundef nonnull readnone align 8 dereferenceable(40) %0, float noundef %1, float noundef %2) local_unnamed_addr #6 align 2 {
  %4 = fdiv float %1, %2
  %5 = tail call noundef float @llvm.fabs.f32(float %4)
  %6 = fcmp ugt float %5, 0x4012BD8AE0000000
  %7 = fmul float %4, %4
  %8 = fdiv float %7, 0x4035F33DE0000000
  %9 = fsub float 1.000000e+00, %8
  %10 = fmul float %9, %9
  %.0 = select i1 %6, float 0.000000e+00, float %10
  ret float %.0
}